
.temp.file.elf:     file format elf32-littleriscv

SYMBOL TABLE:
00000000 l    d  .init	00000000 .init
00000044 l    d  .text	00000000 .text
00001000 l    d  .data	00000000 .data
00001010 l    d  .heap	00000000 .heap
00000000 l    d  .riscv.attributes	00000000 .riscv.attributes
00000000 l    d  .comment	00000000 .comment
00000000 l    d  .debug_line	00000000 .debug_line
00000000 l    d  .debug_line_str	00000000 .debug_line_str
00000000 l    d  .debug_info	00000000 .debug_info
00000000 l    d  .debug_abbrev	00000000 .debug_abbrev
00000000 l    d  .debug_aranges	00000000 .debug_aranges
00000000 l    d  .debug_str	00000000 .debug_str
00000000 l    d  .debug_rnglists	00000000 .debug_rnglists
00000000 l    d  .debug_macro	00000000 .debug_macro
00000000 l    d  .debug_frame	00000000 .debug_frame
00000000 l    d  .debug_loclists	00000000 .debug_loclists
00000000 l    df *ABS*	00000000 .temp.start.o
00000000 l    df *ABS*	00000000 blink_test.c
00000000 l    df *ABS*	00000000 trap_handler.c
00000800 g       *ABS*	00000000 __flash_size
00000000 g       .init	00000000 __trap_vector_end
00000100 g       *ABS*	00000000 __stack_size
00000000 g       .init	00000000 __init_start
00000044 g       .text	00000000 __text_start
00000194 g       .text	00000000 __rodata_end
00001010 g       .heap	00000000 __bss_end
00000070 g     F .text	000000c0 trap_handler
00001800 g       .riscv.attributes	00000000 _stack_top
00000000 g       .init	00000000 _start
00000000 g       .init	00000000 __trap_vector_start
00000194 g       .text	00000000 __rodata_start
00002000 g       *ABS*	00000000 __ram
00001010 g       .data	00000000 __data_end
00000044 g       .init	00000000 __init_end
00000044 g     F .text	00000014 GPIO_init
00000194 g       .text	00000000 __text_end
00001010 g       .heap	00000000 __bss_start
00000130 g     F .text	00000064 main
00001700 g       .heap	00000000 __heap_end
00000800 g       *ABS*	00000000 __ram_size
00001010 g       .heap	00000000 __heap_start
00000058 g     F .text	00000018 UART_init
00000000 g       *ABS*	00000000 __flash
00001010 g       .data	00000000 __data_start



Disassembly of section .init:

00000000 <__init_start>:
     ### .section .init
     ### .globl _start
     ### 
     ### _start:
     ###     la sp, _stack_top
   0:	       00002117          	auipc	x2,0x2
   4:	       80010113          	addi	x2,x2,-2048 # 1800 <_stack_top>
     ### 
     ###     # install trap handler into mtvec (direct mode, bit[1:0]=0)
     ###     la t0, trap_handler
   8:	       00000297          	auipc	x5,0x0
   c:	       06828293          	addi	x5,x5,104 # 70 <trap_handler>
     ###     csrw mtvec, t0
  10:	       30529073          	csrrw	x0,mtvec,x5
     ### 
     ###     # enable machine-mode interrupts (MIE bit in mstatus)
     ###     li t0, 0x8
  14:	       00800293          	addi	x5,x0,8
     ###     csrs mstatus, t0
  18:	       3002a073          	csrrs	x0,mstatus,x5
     ### 
     ###     # zero .bss
     ###     la t0, __bss_start
  1c:	       00001297          	auipc	x5,0x1
  20:	       ff428293          	addi	x5,x5,-12 # 1010 <__bss_end>
     ###     la t1, __bss_end
  24:	       00001317          	auipc	x6,0x1
  28:	       fec30313          	addi	x6,x6,-20 # 1010 <__bss_end>
     ### 
     ### 1:
     ###     bge t0, t1, 2f
  2c:	/--/-X 0062d863          	bge	x5,x6,3c <__init_start+0x3c>
     ###     sw zero, 0(t0)
  30:	|  |   0002a023          	sw	x0,0(x5)
     ###     addi t0, t0, 4
  34:	|  |   00428293          	addi	x5,x5,4
     ###     j 1b
  38:	|  \-- ff5ff06f          	jal	x0,2c <__init_start+0x2c>
     ### 
     ### 2:
     ###     call main
  3c:	\----> 0f4000ef          	jal	x1,130 <main>
     ### 
     ### 3:  j 3b
  40:	   /-- 0000006f          	jal	x0,40 <__init_start+0x40>

Disassembly of section .text:

00000044 <GPIO_init>:
     ### // blink test
     ### #include <stdint.h>
     ### #include "memory_map.h"
     ### 
     ### void GPIO_init() {
     ###     GPIO_GDIR = 0x01; // Set GPIO pin 0 as output
  44:	000027b7          	lui	x15,0x2
  48:	00100713          	addi	x14,x0,1
  4c:	0ce7a023          	sw	x14,192(x15) # 20c0 <__ram+0xc0>
     ###     GPIO_GDAT = 0x00; // Set GPIO pin 0 low
  50:	0c07a223          	sw	x0,196(x15)
     ### }
  54:	00008067          	jalr	x0,0(x1)

00000058 <UART_init>:
     ### 
     ### void UART_init() {
     ###     UART_UBRR = 0x04; // Set baud rate divisor for 115200 baud
  58:	000027b7          	lui	x15,0x2
  5c:	00400713          	addi	x14,x0,4
  60:	04e7a823          	sw	x14,80(x15) # 2050 <__ram+0x50>
     ###     UART_UCR1 = 0x07; // Enable UART, receiver, transmitter
  64:	00700713          	addi	x14,x0,7
  68:	04e7a623          	sw	x14,76(x15)
     ### }
  6c:	00008067          	jalr	x0,0(x1)

00000070 <trap_handler>:
     ### 
     ### // trap handler for RISC-V SoC
     ### #include <stdint.h>
     ### #include "memory_map.h"
     ### // for now it is in direct mode
     ### void __attribute__((interrupt("machine"))) trap_handler (void) {
  70:	             ff010113          	addi	x2,x2,-16
  74:	             00d12623          	sw	x13,12(x2)
  78:	             00e12423          	sw	x14,8(x2)
  7c:	             00f12223          	sw	x15,4(x2)
     ###     uint32_t mepc, mcause;
     ###     asm volatile ("csrr %0, mcause" : "=r"(mcause));
  80:	             342027f3          	csrrs	x15,mcause,x0
     ### 
     ###     if (mcause & 0x80000000) {
  84:	/----------- 0807d263          	bge	x15,x0,108 <__stack_size+0x8>
     ###         // Interrupt
     ###         // mepc already points to the interrupted instruction
     ###         uint32_t id = mcause & 0x1F;
  88:	|            01f7f793          	andi	x15,x15,31
     ###         // switch case needs jump table to be loaded into dmem
     ###         if (id == 16) { // QSPI — read received byte to clear RX interrupt flag
  8c:	|            01000713          	addi	x14,x0,16
  90:	|        /-- 00e79e63          	bne	x15,x14,ac <trap_handler+0x3c>
     ###             (void) QSPI_DATA;
  94:	|        |   000027b7          	lui	x15,0x2
  98:	|        |   0047a703          	lw	x14,4(x15) # 2004 <__ram+0x4>
     ###             QSPI_STATUS = 0;
  9c:	|        |   0007a423          	sw	x0,8(x15)
     ###             TEST_LOC = 1;
     ###         } else if (id == 19) { // Timer — acknowledge by clearing the timer interrupt flag
     ###             // TIMER_CTRL = 0;
     ###             TEST_LOC = 108;
     ###         } else if (id == 20) { // Matrix Mul ignored
     ###             TEST_LOC = 1;
  a0:	|  /-----|-> 000017b7          	lui	x15,0x1
  a4:	|  |     |   00100713          	addi	x14,x0,1
  a8:	|  |  /--|-- 03c0006f          	jal	x0,e4 <trap_handler+0x74>
     ###         } else if (id == 17) { // UART — read received byte to drain RX FIFO
  ac:	|  |  |  \-> 01100713          	addi	x14,x0,17
  b0:	|  |  |  /-- 00e79863          	bne	x15,x14,c0 <trap_handler+0x50>
     ###             (void) UART_URDR;
  b4:	|  |  |  |   000027b7          	lui	x15,0x2
  b8:	|  |  |  |   0447a783          	lw	x15,68(x15) # 2044 <__ram+0x44>
     ###             TEST_LOC = 1;
  bc:	|  +--|--|-- fe5ff06f          	jal	x0,a0 <trap_handler+0x30>
     ###         } else if (id == 18) { // GPIO — read pin state to clear edge-detect flag
  c0:	|  |  |  \-> 01200713          	addi	x14,x0,18
  c4:	|  |  |  /-- 00e79863          	bne	x15,x14,d4 <trap_handler+0x64>
     ###             (void) GPIO_GDAT;
  c8:	|  |  |  |   000027b7          	lui	x15,0x2
  cc:	|  |  |  |   0c47a783          	lw	x15,196(x15) # 20c4 <__ram+0xc4>
     ###             TEST_LOC = 1;
  d0:	|  +--|--|-- fd1ff06f          	jal	x0,a0 <trap_handler+0x30>
     ###         } else if (id == 19) { // Timer — acknowledge by clearing the timer interrupt flag
  d4:	|  |  |  \-> 01300713          	addi	x14,x0,19
  d8:	|  |  |  /-- 00e79a63          	bne	x15,x14,ec <trap_handler+0x7c>
     ###             TEST_LOC = 108;
  dc:	|  |  |  |   000017b7          	lui	x15,0x1
  e0:	|  |  |  |   06c00713          	addi	x14,x0,108
     ###             TEST_LOC = 1;
  e4:	|  |  \--|-> 00e7a023          	sw	x14,0(x15) # 1000 <__flash_size+0x800>
  e8:	|  |  /--|-- 00c0006f          	jal	x0,f4 <trap_handler+0x84>
     ###         } else if (id == 20) { // Matrix Mul ignored
  ec:	|  |  |  \-> 01400713          	addi	x14,x0,20
  f0:	|  \--|----- fae788e3          	beq	x15,x14,a0 <trap_handler+0x30>
     ###         // Log cause to UART for debug visibility
     ###         UART_UBRR = 0x04;
     ###         UART_UCR1 = 0x07;
     ###         UART_UTDR = mcause;
     ###     }
  f4:	|     >----> 00c12683          	lw	x13,12(x2)
  f8:	|     |      00812703          	lw	x14,8(x2)
  fc:	|     |      00412783          	lw	x15,4(x2)
 100:	|     |      01010113          	addi	x2,x2,16
 104:	|     |      30200073          	mret
     ###         asm volatile ("csrr %0, mepc" : "=r"(mepc));
 108:	\-----|----> 34102773          	csrrs	x14,mepc,x0
     ###         mepc += 4; // put mepc on the next instruction
 10c:	      |      00470713          	addi	x14,x14,4
     ###         asm volatile ("csrw mepc, %0" : : "r"(mepc));
 110:	      |      34171073          	csrrw	x0,mepc,x14
     ###         UART_UBRR = 0x04;
 114:	      |      00002737          	lui	x14,0x2
 118:	      |      00400693          	addi	x13,x0,4
 11c:	      |      04d72823          	sw	x13,80(x14) # 2050 <__ram+0x50>
     ###         UART_UCR1 = 0x07;
 120:	      |      00700693          	addi	x13,x0,7
 124:	      |      04d72623          	sw	x13,76(x14)
     ###         UART_UTDR = mcause;
 128:	      |      04f72423          	sw	x15,72(x14)
 12c:	      \----- fc9ff06f          	jal	x0,f4 <trap_handler+0x84>

00000130 <main>:
     ### 
     ### int main () {
 130:	             fe010113          	addi	x2,x2,-32
 134:	             00112e23          	sw	x1,28(x2)
     ###     volatile int i = 0;
 138:	             00012623          	sw	x0,12(x2)
     ###     GPIO_init();
 13c:	             f09ff0ef          	jal	x1,44 <GPIO_init>
     ###     UART_init();
 140:	             f19ff0ef          	jal	x1,58 <UART_init>
     ###     while (1) {
     ###         UART_UTDR = 'N';
 144:	             000027b7          	lui	x15,0x2
     ###         // while (!(UART_USR0 & 0x4));
     ###         GPIO_GDAT ^= 0x1; // Toggle GPIO pin 0
     ###         for (i = 0; i < 12500000; i++); // Delay
 148:	             00bec737          	lui	x14,0xbec
     ###         UART_UTDR = 'N';
 14c:	             04878613          	addi	x12,x15,72 # 2048 <__ram+0x48>
 150:	             04e00593          	addi	x11,x0,78
     ###         for (i = 0; i < 12500000; i++); // Delay
 154:	             c1f70713          	addi	x14,x14,-993 # bebc1f <__ram+0xbe9c1f>
     ###         UART_UTDR = 'N';
 158:	/----------> 00b62023          	sw	x11,0(x12)
     ###         GPIO_GDAT ^= 0x1; // Toggle GPIO pin 0
 15c:	|            0c47a683          	lw	x13,196(x15)
 160:	|            0016c693          	xori	x13,x13,1
 164:	|            0cd7a223          	sw	x13,196(x15)
     ###         for (i = 0; i < 12500000; i++); // Delay
 168:	|            00012623          	sw	x0,12(x2)
 16c:	|  /-------> 00c12683          	lw	x13,12(x2)
 170:	|  |  /----- 00d75a63          	bge	x14,x13,184 <main+0x54>
     ###         while (!(UART_USR0 & 0x4));
 174:	|  |  |  /-> 0407a683          	lw	x13,64(x15)
 178:	|  |  |  |   0046f693          	andi	x13,x13,4
 17c:	|  |  |  \-- fe068ce3          	beq	x13,x0,174 <main+0x44>
 180:	\--|--|----- fd9ff06f          	jal	x0,158 <main+0x28>
     ###         for (i = 0; i < 12500000; i++); // Delay
 184:	   |  \----> 00c12683          	lw	x13,12(x2)
 188:	   |         00168693          	addi	x13,x13,1
 18c:	   |         00d12623          	sw	x13,12(x2)
 190:	   \-------- fddff06f          	jal	x0,16c <main+0x3c>
