
.temp.file.elf:     file format elf32-littleriscv

SYMBOL TABLE:
00000000 l    d  .init	00000000 .init
0000005c l    d  .text	00000000 .text
00000800 l    d  .data	00000000 .data
00000800 l    d  .tbss_space	00000000 .tbss_space
00000800 l    d  .bss	00000000 .bss
00000800 l    d  .stack	00000000 .stack
00000000 l    d  .comment	00000000 .comment
00000000 l    d  .riscv.attributes	00000000 .riscv.attributes
00000000 l    d  .debug_aranges	00000000 .debug_aranges
00000000 l    d  .debug_info	00000000 .debug_info
00000000 l    d  .debug_abbrev	00000000 .debug_abbrev
00000000 l    d  .debug_line	00000000 .debug_line
00000000 l    d  .debug_frame	00000000 .debug_frame
00000000 l    d  .debug_str	00000000 .debug_str
00000000 l    d  .debug_line_str	00000000 .debug_line_str
00000000 l    d  .debug_loclists	00000000 .debug_loclists
00000000 l    d  .debug_macro	00000000 .debug_macro
00000000 l    d  .debug_rnglists	00000000 .debug_rnglists
00000000 l    df *ABS*	00000000 crt0.c
00000014 l     F .init	00000048 _cstart
00000000 l    df *ABS*	00000000 save-restore.o
00000000 l    df *ABS*	00000000 memcpy-asm.S.o
00000000 l    df *ABS*	00000000 memset.S.o
00000000 l    df *ABS*	00000000 tls.c
00000000 g       *ABS*	00000000 __data_size
00001000 g       .data	00000000 __global_pointer$
000001c8 g     F .text	0000004c .hidden __riscv_save_8
00000800 g       .tbss_space	00000000 __tls_base
00000800 g       *ABS*	00000000 __flash_size
0000025c g     F .text	00000018 .hidden __riscv_restore_3
00000234 g     F .text	00000040 .hidden __riscv_restore_10
000001c8 g     F .text	0000004c .hidden __riscv_save_11
00000100 g       *ABS*	00000000 __stack_size
0000025c g     F .text	00000018 .hidden __riscv_restore_2
00000000 g       *ABS*	00000000 __bss_size
00000274 g     F .text	00000024 memcpy
000001b8 g     F .text	0000005c .hidden __riscv_save_12
00000000 g       *ABS*	00000000 __data_source_size
00000234 g     F .text	00000040 .hidden __riscv_restore_11
00000214 g     F .text	00000018 .hidden __riscv_save_1
0000025c g     F .text	00000018 .hidden __riscv_restore_0
000001e4 g     F .text	00000030 .hidden __riscv_save_7
00000248 g     F .text	0000002c .hidden __riscv_restore_5
00000800 g       .bss	00000000 __bss_end
00000248 g     F .text	0000002c .hidden __riscv_restore_6
00000291  w      .debug_info	00000000 .hidden matrix_mul.c.2981e5ed
000001c8 g     F .text	0000004c .hidden __riscv_save_9
000002b4 g     F .text	00000008 _set_tls
000001e4 g     F .text	00000030 .hidden __riscv_save_4
000002c0 g       *ABS*	00000000 __data_source_end
00000214 g     F .text	00000018 .hidden __riscv_save_3
00000000 g     F .init	00000014 _start
00000800 g       *ABS*	00000000 __ram
00000800 g       .tbss_space	00000000 __data_end
000002c0 g       *ABS*	00000000 __tdata_source_end
000002bc g       .text	00000000 __text_end
000001c8 g     F .text	0000004c .hidden __riscv_save_10
00000248 g     F .text	0000002c .hidden __riscv_restore_4
00000234 g     F .text	00000040 .hidden __riscv_restore_8
000001e4 g     F .text	00000030 .hidden __riscv_save_6
00000800 g       .tbss_space	00000000 __bss_start
00000298 g     F .text	0000001c memset
00000234 g     F .text	00000040 .hidden __riscv_restore_9
00000248 g     F .text	0000002c .hidden __riscv_restore_7
0000005c g     F .text	0000015c main
00000800 g       *ABS*	00000000 __ram_size
00000214 g     F .text	00000018 .hidden __riscv_save_2
00001000 g       .init	00000000 __stack
000001e4 g     F .text	00000030 .hidden __riscv_save_5
00000000 g     F *ABS*	00000000 vfscanf
000002c0 g       *ABS*	00000000 __data_source
0000022c g     F .text	00000048 .hidden __riscv_restore_12
00000214 g     F .text	00000018 .hidden __riscv_save_0
00000000 g       *ABS*	00000000 __flash
00000800 g       .data	00000000 __data_start
0000025c g     F .text	00000018 .hidden __riscv_restore_1
00000000 g     F *ABS*	00000000 vfprintf



Disassembly of section .init:

00000000 <_start>:
   0:	00001117          	auipc	x2,0x1
   4:	00010113          	addi	x2,x2,0 # 1000 <__stack>
   8:	00001197          	auipc	x3,0x1
   c:	ff818193          	addi	x3,x3,-8 # 1000 <__stack>
  10:	0040006f          	jal	x0,14 <_cstart>

00000014 <_cstart>:
  14:	    200002ef          	jal	x5,214 <__riscv_save_0>
  18:	    00001537          	lui	x10,0x1
  1c:	    00000613          	addi	x12,x0,0
  20:	    2c000593          	addi	x11,x0,704
  24:	    80050513          	addi	x10,x10,-2048 # 800 <__bss_end>
  28:	    24c000ef          	jal	x1,274 <memcpy>
  2c:	    00001537          	lui	x10,0x1
  30:	    00000593          	addi	x11,x0,0
  34:	    00000613          	addi	x12,x0,0
  38:	    80050513          	addi	x10,x10,-2048 # 800 <__bss_end>
  3c:	    25c000ef          	jal	x1,298 <memset>
  40:	    00001537          	lui	x10,0x1
  44:	    80050513          	addi	x10,x10,-2048 # 800 <__bss_end>
  48:	    26c000ef          	jal	x1,2b4 <_set_tls>
  4c:	    00000593          	addi	x11,x0,0
  50:	    00000513          	addi	x10,x0,0
  54:	    008000ef          	jal	x1,5c <main>
  58:	/-- 0000006f          	jal	x0,58 <_cstart+0x44>

Disassembly of section .text:

0000005c <main>:
  5c:	       f8010113          	addi	x2,x2,-128
  60:	       02400613          	addi	x12,x0,36
  64:	       00000593          	addi	x11,x0,0
  68:	       00410513          	addi	x10,x2,4
  6c:	       06112e23          	sw	x1,124(x2)
  70:	       228000ef          	jal	x1,298 <memset>
  74:	       00200713          	addi	x14,x0,2
  78:	       04e12823          	sw	x14,80(x2)
  7c:	       00300713          	addi	x14,x0,3
  80:	       04e12a23          	sw	x14,84(x2)
  84:	       fff00713          	addi	x14,x0,-1
  88:	       04e12c23          	sw	x14,88(x2)
  8c:	       ff600713          	addi	x14,x0,-10
  90:	       04e12e23          	sw	x14,92(x2)
  94:	       00b00713          	addi	x14,x0,11
  98:	       06e12023          	sw	x14,96(x2)
  9c:	       f1800713          	addi	x14,x0,-232
  a0:	       06e12223          	sw	x14,100(x2)
  a4:	       02a00713          	addi	x14,x0,42
  a8:	       06e12423          	sw	x14,104(x2)
  ac:	       02000713          	addi	x14,x0,32
  b0:	       06e12623          	sw	x14,108(x2)
  b4:	       fed00713          	addi	x14,x0,-19
  b8:	       02e12423          	sw	x14,40(x2)
  bc:	       03300713          	addi	x14,x0,51
  c0:	       02e12623          	sw	x14,44(x2)
  c4:	       47f00713          	addi	x14,x0,1151
  c8:	       02e12823          	sw	x14,48(x2)
  cc:	       00400713          	addi	x14,x0,4
  d0:	       02e12a23          	sw	x14,52(x2)
  d4:	       00500713          	addi	x14,x0,5
  d8:	       00100793          	addi	x15,x0,1
  dc:	       02e12c23          	sw	x14,56(x2)
  e0:	       00600713          	addi	x14,x0,6
  e4:	       04f12623          	sw	x15,76(x2)
  e8:	       02e12e23          	sw	x14,60(x2)
  ec:	       04f12223          	sw	x15,68(x2)
  f0:	       06300713          	addi	x14,x0,99
  f4:	       ff400793          	addi	x15,x0,-12
  f8:	       04e12023          	sw	x14,64(x2)
  fc:	       04f12423          	sw	x15,72(x2)
 100:	       04c10613          	addi	x12,x2,76
 104:	       00000513          	addi	x10,x0,0
 108:	       03410e93          	addi	x29,x2,52
 10c:	       02400f13          	addi	x30,x0,36
 110:	/----> 00062e03          	lw	x28,0(x12)
 114:	|      00462303          	lw	x6,4(x12)
 118:	|      00862883          	lw	x17,8(x12)
 11c:	|      00410713          	addi	x14,x2,4
 120:	|      00a705b3          	add	x11,x14,x10
 124:	|      02810693          	addi	x13,x2,40
 128:	|  /-> 0006a783          	lw	x15,0(x13)
 12c:	|  |   0005a803          	lw	x16,0(x11)
 130:	|  |   00468693          	addi	x13,x13,4
 134:	|  |   02fe07b3          	mul	x15,x28,x15
 138:	|  |   00458593          	addi	x11,x11,4
 13c:	|  |   010787b3          	add	x15,x15,x16
 140:	|  |   0086a803          	lw	x16,8(x13)
 144:	|  |   03030833          	mul	x16,x6,x16
 148:	|  |   010787b3          	add	x15,x15,x16
 14c:	|  |   0146a803          	lw	x16,20(x13)
 150:	|  |   03088833          	mul	x16,x17,x16
 154:	|  |   010787b3          	add	x15,x15,x16
 158:	|  |   fef5ae23          	sw	x15,-4(x11)
 15c:	|  \-- fdd696e3          	bne	x13,x29,128 <__stack_size+0x28>
 160:	|      00c50513          	addi	x10,x10,12
 164:	|      00c60613          	addi	x12,x12,12
 168:	\----- fbe514e3          	bne	x10,x30,110 <__stack_size+0x10>
 16c:	       02810693          	addi	x13,x2,40
 170:	       000017b7          	lui	x15,0x1
 174:	   /-> 00072603          	lw	x12,0(x14)
 178:	   |   00c70713          	addi	x14,x14,12
 17c:	   |   80c7a223          	sw	x12,-2044(x15) # 804 <__bss_end+0x4>
 180:	   |   8047a603          	lw	x12,-2044(x15)
 184:	   |   ff872603          	lw	x12,-8(x14)
 188:	   |   80c7a223          	sw	x12,-2044(x15)
 18c:	   |   8047a603          	lw	x12,-2044(x15)
 190:	   |   ffc72603          	lw	x12,-4(x14)
 194:	   |   80c7a223          	sw	x12,-2044(x15)
 198:	   |   8047a603          	lw	x12,-2044(x15)
 19c:	   \-- fce69ce3          	bne	x13,x14,174 <__stack_size+0x74>
 1a0:	       00100713          	addi	x14,x0,1
 1a4:	       80e78423          	sb	x14,-2040(x15)
 1a8:	       07c12083          	lw	x1,124(x2)
 1ac:	       00000513          	addi	x10,x0,0
 1b0:	       08010113          	addi	x2,x2,128
 1b4:	       00008067          	jalr	x0,0(x1)

000001b8 <__riscv_save_12>:
 1b8:	fc010113          	addi	x2,x2,-64
 1bc:	00000313          	addi	x6,x0,0
 1c0:	01b12623          	sw	x27,12(x2)
 1c4:	00c0006f          	jal	x0,1d0 <__riscv_save_10+0x8>

000001c8 <__riscv_save_10>:
 1c8:	fc010113          	addi	x2,x2,-64
 1cc:	ff000313          	addi	x6,x0,-16
 1d0:	01a12823          	sw	x26,16(x2)
 1d4:	01912a23          	sw	x25,20(x2)
 1d8:	01812c23          	sw	x24,24(x2)
 1dc:	01712e23          	sw	x23,28(x2)
 1e0:	00c0006f          	jal	x0,1ec <__riscv_save_4+0x8>

000001e4 <__riscv_save_4>:
 1e4:	fc010113          	addi	x2,x2,-64
 1e8:	fe000313          	addi	x6,x0,-32
 1ec:	03612023          	sw	x22,32(x2)
 1f0:	03512223          	sw	x21,36(x2)
 1f4:	03412423          	sw	x20,40(x2)
 1f8:	03312623          	sw	x19,44(x2)
 1fc:	03212823          	sw	x18,48(x2)
 200:	02912a23          	sw	x9,52(x2)
 204:	02812c23          	sw	x8,56(x2)
 208:	02112e23          	sw	x1,60(x2)
 20c:	40610133          	sub	x2,x2,x6
 210:	00028067          	jalr	x0,0(x5)

00000214 <__riscv_save_0>:
 214:	ff010113          	addi	x2,x2,-16
 218:	01212023          	sw	x18,0(x2)
 21c:	00912223          	sw	x9,4(x2)
 220:	00812423          	sw	x8,8(x2)
 224:	00112623          	sw	x1,12(x2)
 228:	00028067          	jalr	x0,0(x5)

0000022c <__riscv_restore_12>:
 22c:	00c12d83          	lw	x27,12(x2)
 230:	01010113          	addi	x2,x2,16

00000234 <__riscv_restore_10>:
 234:	00012d03          	lw	x26,0(x2)
 238:	00412c83          	lw	x25,4(x2)
 23c:	00812c03          	lw	x24,8(x2)
 240:	00c12b83          	lw	x23,12(x2)
 244:	01010113          	addi	x2,x2,16

00000248 <__riscv_restore_4>:
 248:	00012b03          	lw	x22,0(x2)
 24c:	00412a83          	lw	x21,4(x2)
 250:	00812a03          	lw	x20,8(x2)
 254:	00c12983          	lw	x19,12(x2)
 258:	01010113          	addi	x2,x2,16

0000025c <__riscv_restore_0>:
 25c:	00012903          	lw	x18,0(x2)
 260:	00412483          	lw	x9,4(x2)
 264:	00812403          	lw	x8,8(x2)
 268:	00c12083          	lw	x1,12(x2)
 26c:	01010113          	addi	x2,x2,16
 270:	00008067          	jalr	x0,0(x1)

00000274 <memcpy>:
 274:	       00050313          	addi	x6,x10,0
 278:	/----- 00060e63          	beq	x12,x0,294 <matrix_mul.c.2981e5ed+0x3>
 27c:	|  /-> 00058383          	lb	x7,0(x11)
 280:	|  |   00730023          	sb	x7,0(x6)
 284:	|  |   fff60613          	addi	x12,x12,-1
 288:	|  |   00130313          	addi	x6,x6,1
 28c:	|  |   00158593          	addi	x11,x11,1
 290:	|  \-- fe0616e3          	bne	x12,x0,27c <memcpy+0x8>
 294:	\----> 00008067          	jalr	x0,0(x1)

00000298 <memset>:
 298:	       00050313          	addi	x6,x10,0
 29c:	/----- 00060a63          	beq	x12,x0,2b0 <memset+0x18>
 2a0:	|  /-> 00b30023          	sb	x11,0(x6)
 2a4:	|  |   fff60613          	addi	x12,x12,-1
 2a8:	|  |   00130313          	addi	x6,x6,1
 2ac:	|  \-- fe061ae3          	bne	x12,x0,2a0 <memset+0x8>
 2b0:	\----> 00008067          	jalr	x0,0(x1)

000002b4 <_set_tls>:
 2b4:	00050213          	addi	x4,x10,0
 2b8:	00008067          	jalr	x0,0(x1)

000002bc <__text_end>:
 2bc:	0000                	.2byte	0x0
	...
